(lp0
S'{in_trsp1}'
p1
aS'{in_trsp2}'
p2
aS'{in_absp1}'
p3
aS'{in_absp2}'
p4
aS'{in_nufs1}'
p5
aS'{in_nufs2}'
p6
aS'{in_dwnsc}'
p7
aS'{in_adfa1}'
p8
aS'{in_adfa2}'
p9
aS'{ot_trsp1}'
p10
aS'{ot_trsp2}'
p11
aS'{ot_absp1}'
p12
aS'{ot_absp2}'
p13
aS'{ot_nufs1}'
p14
aS'{ot_nufs2}'
p15
aS'{ot_dwnsc}'
p16
aS'{ot_adfa1}'
p17
aS'{ot_adfa2}'
p18
aS'{rf_trsp1}'
p19
aS'{rf_trsp2}'
p20
aS'{rf_absp1}'
p21
aS'{rf_absp2}'
p22
aS'{rf_dwnsc}'
p23
aS'{rf_adfa1}'
p24
aS'{rf_adfa2}'
p25
a.